; Function Attrs: mustprogress nounwind uwtable
define dso_local i64 @_ZN11cmJSONState16LocateInDocumentEl(ptr noundef nonnull align 8 dereferenceable(80) %0, i64 noundef %1) local_unnamed_addr #3 align 2 {
  %3 = getelementptr inbounds nuw i8, ptr %0, i64 48
  %4 = tail call noundef ptr @_ZNSt7__cxx1112basic_stringIcSt11char_traitsIcESaIcEE4dataEv(ptr noundef nonnull align 8 dereferenceable(32) %3) #16
  %5 = getelementptr inbounds i8, ptr %4, i64 %1
  %.not19 = icmp eq i64 %1, 0
  br i1 %.not19, label %._crit_edge, label %.lr.ph

.lr.ph:                                           ; preds = %2, %16
  %.022 = phi i32 [ %.1, %16 ], [ 1, %2 ]
  %.01321 = phi ptr [ %17, %16 ], [ %4, %2 ]
  %.01420 = phi i32 [ %.115, %16 ], [ 1, %2 ]
  %6 = load i8, ptr %.01321, align 1
  switch i8 %6, label %14 [
    i8 13, label %7
    i8 10, label %12
  ]

7:                                                ; preds = %.lr.ph
  %8 = getelementptr inbounds nuw i8, ptr %.01321, i64 1
  %.not18 = icmp eq ptr %8, %5
  br i1 %.not18, label %12, label %9

9:                                                ; preds = %7
  %10 = load i8, ptr %8, align 1
  %11 = icmp eq i8 %10, 10
  br i1 %11, label %16, label %12

12:                                               ; preds = %7, %9, %.lr.ph
  %13 = add nsw i32 %.022, 1
  br label %16

14:                                               ; preds = %.lr.ph
  %15 = add nsw i32 %.01420, 1
  br label %16

16:                                               ; preds = %12, %14, %9
  %.115 = phi i32 [ %15, %14 ], [ 1, %12 ], [ %.01420, %9 ]
  %.1 = phi i32 [ %.022, %14 ], [ %13, %12 ], [ %.022, %9 ]
  %17 = getelementptr inbounds nuw i8, ptr %.01321, i64 1
  %.not = icmp eq ptr %17, %5
  br i1 %.not, label %._crit_edge.loopexit, label %.lr.ph, !llvm.loop !32

._crit_edge.loopexit:                             ; preds = %16
  %18 = zext i32 %.115 to i64
  %19 = shl nuw i64 %18, 32
  %20 = zext i32 %.1 to i64
  %21 = or disjoint i64 %19, %20
  br label %._crit_edge

._crit_edge:                                      ; preds = %._crit_edge.loopexit, %2
  %.sroa.0.0.insert.insert = phi i64 [ 4294967297, %2 ], [ %21, %._crit_edge.loopexit ]
  ret i64 %.sroa.0.0.insert.insert
}